target datalayout = "e-m:e-p270:32:32-p271:32:32-p272:64:64-i64:64-i128:128-f80:128-n8:16:32:64-S128"
target triple = "x86_64-pc-linux-gnu"

%"class.rocksdb::Slice" = type { ptr, i64 }
%"class.rocksdb::Status" = type { i8, i8, i8, i8, i8, i8, %"class.std::unique_ptr" }
%"class.std::unique_ptr" = type { %"struct.std::__uniq_ptr_data" }
%"struct.std::__uniq_ptr_data" = type { %"class.std::__uniq_ptr_impl" }
%"class.std::__uniq_ptr_impl" = type { %"class.std::tuple" }
%"class.std::tuple" = type { %"struct.std::_Tuple_impl" }
%"struct.std::_Tuple_impl" = type { %"struct.std::_Head_base.4" }
%"struct.std::_Head_base.4" = type { ptr }
%"class.rocksdb::IterKey" = type { ptr, ptr, i64, i64, [39 x i8], i8, [39 x i8], ptr, i64, %"struct.std::array" }
%"struct.std::array" = type { [5 x %"class.rocksdb::Slice"] }
%"class.rocksdb::PlainTableFileReader" = type { ptr, %"struct.std::array.54", i32, %"class.rocksdb::Status" }
%"struct.std::array.54" = type { [2 x %"class.std::unique_ptr.55"] }
%"class.std::unique_ptr.55" = type { %"struct.std::__uniq_ptr_data.56" }
%"struct.std::__uniq_ptr_data.56" = type { %"class.std::__uniq_ptr_impl.57" }
%"class.std::__uniq_ptr_impl.57" = type { %"class.std::tuple.58" }
%"class.std::tuple.58" = type { %"struct.std::_Tuple_impl.59" }
%"struct.std::_Tuple_impl.59" = type { %"struct.std::_Head_base.62" }
%"struct.std::_Head_base.62" = type { ptr }
%"class.rocksdb::PlainTableKeyDecoder" = type <{ %"class.rocksdb::PlainTableFileReader", i8, [3 x i8], i32, i32, [4 x i8], %"class.rocksdb::Slice", %"class.rocksdb::IterKey", ptr, i8, [7 x i8] }>

; Function Attrs: mustprogress uwtable
define void @_ZN7rocksdb20PlainTableKeyDecoder14NextKeyNoValueEjPNS_17ParsedInternalKeyEPNS_5SliceEPjPb(ptr dead_on_unwind noalias writable sret(%"class.rocksdb::Status") align 8 %0, ptr noundef nonnull align 8 dereferenceable(297) %1, i32 noundef %2, ptr noundef %3, ptr noundef %4, ptr noundef %5, ptr noundef %6) #5 align 2 {
  %8 = alloca ptr, align 8
  %9 = alloca ptr, align 8
  %10 = alloca i32, align 4
  %11 = alloca ptr, align 8
  %12 = alloca ptr, align 8
  %13 = alloca ptr, align 8
  %14 = alloca ptr, align 8
  store ptr %0, ptr %8, align 8
  store ptr %1, ptr %9, align 8, !tbaa !150
  store i32 %2, ptr %10, align 4, !tbaa !59
  store ptr %3, ptr %11, align 8, !tbaa !77
  store ptr %4, ptr %12, align 8, !tbaa !13
  store ptr %5, ptr %13, align 8, !tbaa !139
  store ptr %6, ptr %14, align 8, !tbaa !152
  %15 = load ptr, ptr %9, align 8
  %16 = load ptr, ptr %13, align 8, !tbaa !139
  store i32 0, ptr %16, align 4, !tbaa !59
  %17 = load ptr, ptr %14, align 8, !tbaa !152
  %18 = icmp ne ptr %17, null
  br i1 %18, label %19, label %21

19:                                               ; preds = %7
  %20 = load ptr, ptr %14, align 8, !tbaa !152
  store i8 1, ptr %20, align 1, !tbaa !79
  br label %21

21:                                               ; preds = %19, %7
  %22 = getelementptr inbounds nuw %"class.rocksdb::PlainTableKeyDecoder", ptr %15, i32 0, i32 1
  %23 = load i8, ptr %22, align 8, !tbaa !161
  %24 = sext i8 %23 to i32
  %25 = icmp eq i32 %24, 0
  br i1 %25, label %26, label %32

26:                                               ; preds = %21
  %27 = load i32, ptr %10, align 4, !tbaa !59
  %28 = load ptr, ptr %11, align 8, !tbaa !77
  %29 = load ptr, ptr %12, align 8, !tbaa !13
  %30 = load ptr, ptr %13, align 8, !tbaa !139
  %31 = load ptr, ptr %14, align 8, !tbaa !152
  call void @_ZN7rocksdb20PlainTableKeyDecoder20NextPlainEncodingKeyEjPNS_17ParsedInternalKeyEPNS_5SliceEPjPb(ptr dead_on_unwind writable sret(%"class.rocksdb::Status") align 8 %0, ptr noundef nonnull align 8 dereferenceable(297) %15, i32 noundef %27, ptr noundef %28, ptr noundef %29, ptr noundef %30, ptr noundef %31)
  br label %38

32:                                               ; preds = %21
  %33 = load i32, ptr %10, align 4, !tbaa !59
  %34 = load ptr, ptr %11, align 8, !tbaa !77
  %35 = load ptr, ptr %12, align 8, !tbaa !13
  %36 = load ptr, ptr %13, align 8, !tbaa !139
  %37 = load ptr, ptr %14, align 8, !tbaa !152
  call void @_ZN7rocksdb20PlainTableKeyDecoder21NextPrefixEncodingKeyEjPNS_17ParsedInternalKeyEPNS_5SliceEPjPb(ptr dead_on_unwind writable sret(%"class.rocksdb::Status") align 8 %0, ptr noundef nonnull align 8 dereferenceable(297) %15, i32 noundef %33, ptr noundef %34, ptr noundef %35, ptr noundef %36, ptr noundef %37)
  br label %38

38:                                               ; preds = %32, %26
  ret void
}