; Function Attrs: mustprogress uwtable
define void @_ZN7rocksdb20PlainTableKeyDecoder14NextKeyNoValueEjPNS_17ParsedInternalKeyEPNS_5SliceEPjPb(ptr dead_on_unwind noalias writable sret(%"class.rocksdb::Status") align 8 %0, ptr noundef nonnull align 8 dereferenceable(297) %1, i32 noundef %2, ptr noundef %3, ptr noundef %4, ptr noundef captures(none) initializes((0, 4)) %5, ptr noundef %6) local_unnamed_addr #4 align 2 {
  store i32 0, ptr %5, align 4, !tbaa !143
  %.not = icmp eq ptr %6, null
  br i1 %.not, label %9, label %8

8:                                                ; preds = %7
  store i8 1, ptr %6, align 1, !tbaa !138
  br label %9

9:                                                ; preds = %8, %7
  %10 = getelementptr inbounds nuw i8, ptr %1, i64 48
  %11 = load i8, ptr %10, align 8, !tbaa !183
  %12 = icmp eq i8 %11, 0
  br i1 %12, label %13, label %14

13:                                               ; preds = %9
  tail call void @_ZN7rocksdb20PlainTableKeyDecoder20NextPlainEncodingKeyEjPNS_17ParsedInternalKeyEPNS_5SliceEPjPb(ptr dead_on_unwind writable sret(%"class.rocksdb::Status") align 8 %0, ptr noundef nonnull align 8 dereferenceable(297) %1, i32 noundef %2, ptr noundef %3, ptr noundef %4, ptr noundef nonnull %5, ptr poison)
  br label %15

14:                                               ; preds = %9
  tail call void @_ZN7rocksdb20PlainTableKeyDecoder21NextPrefixEncodingKeyEjPNS_17ParsedInternalKeyEPNS_5SliceEPjPb(ptr dead_on_unwind writable sret(%"class.rocksdb::Status") align 8 %0, ptr noundef nonnull align 8 dereferenceable(297) %1, i32 noundef %2, ptr noundef %3, ptr noundef %4, ptr noundef nonnull %5, ptr noundef %6)
  br label %15

15:                                               ; preds = %14, %13
  ret void
}